; Function Attrs: mustprogress nounwind uwtable
define hidden void @_ZN4llvh2cl22AddExtraVersionPrinterESt8functionIFvRNS_11raw_ostreamEEE(ptr noundef %func) local_unnamed_addr #0 {
entry:
  %0 = load ptr, ptr @_ZL20ExtraVersionPrinters, align 8
  %tobool.not = icmp eq ptr %0, null
  br i1 %tobool.not, label %if.then, label %if.end

if.then:                                          ; preds = %entry
  %call = tail call noalias noundef nonnull dereferenceable(24) ptr @_Znwm(i64 noundef 24) #29
  tail call void @llvm.memset.p0.i64(ptr noundef nonnull align 8 dereferenceable(24) %call, i8 0, i64 24, i1 false)
  store ptr %call, ptr @_ZL20ExtraVersionPrinters, align 8
  br label %if.end

if.end:                                           ; preds = %if.then, %entry
  %1 = phi ptr [ %call, %if.then ], [ %0, %entry ]
  %_M_finish.i = getelementptr inbounds i8, ptr %1, i64 8
  %2 = load ptr, ptr %_M_finish.i, align 8
  %_M_end_of_storage.i = getelementptr inbounds i8, ptr %1, i64 16
  %3 = load ptr, ptr %_M_end_of_storage.i, align 8
  %cmp.not.i = icmp eq ptr %2, %3
  br i1 %cmp.not.i, label %if.else.i, label %if.then.i

if.then.i:                                        ; preds = %if.end
  %_M_manager.i.i.i.i.i.i = getelementptr inbounds i8, ptr %func, i64 16
  tail call void @llvm.memset.p0.i64(ptr noundef nonnull align 8 dereferenceable(32) %2, i8 0, i64 32, i1 false)
  %4 = load ptr, ptr %_M_manager.i.i.i.i.i.i, align 8
  %tobool.not.i.i.not.i.i.i.i = icmp eq ptr %4, null
  br i1 %tobool.not.i.i.not.i.i.i.i, label %_ZNSt16allocator_traitsISaISt8functionIFvRN4llvh11raw_ostreamEEEEE9constructIS5_JRKS5_EEEvRS6_PT_DpOT0_.exit.i, label %if.then.i.i.i.i

if.then.i.i.i.i:                                  ; preds = %if.then.i
  %_M_invoker.i.i.i.i = getelementptr inbounds i8, ptr %2, i64 24
  %_M_manager.i.i.i.i.i = getelementptr inbounds i8, ptr %2, i64 16
  %call3.i.i.i.i = tail call noundef zeroext i1 %4(ptr noundef nonnull align 8 dereferenceable(16) %2, ptr noundef nonnull align 8 dereferenceable(16) %func, i32 noundef 2) #27
  %_M_invoker4.i.i.i.i = getelementptr inbounds i8, ptr %func, i64 24
  %5 = load ptr, ptr %_M_invoker4.i.i.i.i, align 8
  store ptr %5, ptr %_M_invoker.i.i.i.i, align 8
  %6 = load ptr, ptr %_M_manager.i.i.i.i.i.i, align 8
  store ptr %6, ptr %_M_manager.i.i.i.i.i, align 8
  br label %_ZNSt16allocator_traitsISaISt8functionIFvRN4llvh11raw_ostreamEEEEE9constructIS5_JRKS5_EEEvRS6_PT_DpOT0_.exit.i

_ZNSt16allocator_traitsISaISt8functionIFvRN4llvh11raw_ostreamEEEEE9constructIS5_JRKS5_EEEvRS6_PT_DpOT0_.exit.i: ; preds = %if.then.i.i.i.i, %if.then.i
  %7 = load ptr, ptr %_M_finish.i, align 8
  %incdec.ptr.i = getelementptr inbounds i8, ptr %7, i64 32
  store ptr %incdec.ptr.i, ptr %_M_finish.i, align 8
  br label %_ZNSt6vectorISt8functionIFvRN4llvh11raw_ostreamEEESaIS5_EE9push_backERKS5_.exit

if.else.i:                                        ; preds = %if.end
  tail call void @_ZNSt6vectorISt8functionIFvRN4llvh11raw_ostreamEEESaIS5_EE17_M_realloc_insertIJRKS5_EEEvN9__gnu_cxx17__normal_iteratorIPS5_S7_EEDpOT_(ptr noundef nonnull align 8 dereferenceable(24) %1, ptr %2, ptr noundef nonnull align 8 dereferenceable(32) %func)
  br label %_ZNSt6vectorISt8functionIFvRN4llvh11raw_ostreamEEESaIS5_EE9push_backERKS5_.exit

_ZNSt6vectorISt8functionIFvRN4llvh11raw_ostreamEEESaIS5_EE9push_backERKS5_.exit: ; preds = %_ZNSt16allocator_traitsISaISt8functionIFvRN4llvh11raw_ostreamEEEEE9constructIS5_JRKS5_EEEvRS6_PT_DpOT0_.exit.i, %if.else.i
  ret void
}